target datalayout = "e-m:e-p270:32:32-p271:32:32-p272:64:64-i64:64-i128:128-f80:128-n8:16:32:64-S128"
target triple = "x86_64-pc-linux-gnu"

%"struct.Yosys::RTLIL::IdString" = type { i32 }
%"struct.Yosys::DriveBit" = type { i8, %union.anon }
%union.anon = type { %"struct.Yosys::DriveBitPort", [40 x i8] }
%"struct.Yosys::DriveBitPort" = type { ptr, %"struct.Yosys::RTLIL::IdString", i32 }
%"struct.Yosys::DriveSpec" = type <{ i32, [4 x i8], %"class.std::vector.25", %"class.std::vector.30", i32, [4 x i8] }>
%"class.std::vector.25" = type { %"struct.std::_Vector_base.26" }
%"struct.std::_Vector_base.26" = type { %"struct.std::_Vector_base<Yosys::DriveChunk, std::allocator<Yosys::DriveChunk>>::_Vector_impl" }
%"struct.std::_Vector_base<Yosys::DriveChunk, std::allocator<Yosys::DriveChunk>>::_Vector_impl" = type { %"struct.std::_Vector_base<Yosys::DriveChunk, std::allocator<Yosys::DriveChunk>>::_Vector_impl_data" }
%"struct.std::_Vector_base<Yosys::DriveChunk, std::allocator<Yosys::DriveChunk>>::_Vector_impl_data" = type { ptr, ptr, ptr }
%"class.std::vector.30" = type { %"struct.std::_Vector_base.31" }
%"struct.std::_Vector_base.31" = type { %"struct.std::_Vector_base<Yosys::DriveBit, std::allocator<Yosys::DriveBit>>::_Vector_impl" }
%"struct.std::_Vector_base<Yosys::DriveBit, std::allocator<Yosys::DriveBit>>::_Vector_impl" = type { %"struct.std::_Vector_base<Yosys::DriveBit, std::allocator<Yosys::DriveBit>>::_Vector_impl_data" }
%"struct.std::_Vector_base<Yosys::DriveBit, std::allocator<Yosys::DriveBit>>::_Vector_impl_data" = type { ptr, ptr, ptr }

; Function Attrs: mustprogress nounwind uwtable
define linkonce_odr void @_ZNSt15__new_allocatorIN5Yosys8DriveBitEEC2Ev(ptr noundef nonnull align 1 dereferenceable(1) %0) unnamed_addr #7 comdat align 2 {
  %2 = alloca ptr, align 8
  store ptr %0, ptr %2, align 8, !tbaa !649
  ret void
}

; Function Attrs: mustprogress nounwind uwtable
define linkonce_odr void @_ZNSt15__new_allocatorIN5Yosys10DriveChunkEEC2Ev(ptr noundef nonnull align 1 dereferenceable(1) %0) unnamed_addr #7 comdat align 2 {
  %2 = alloca ptr, align 8
  store ptr %0, ptr %2, align 8, !tbaa !728
  ret void
}

; Function Attrs: mustprogress nounwind uwtable
define linkonce_odr void @_ZNSt12_Vector_baseIN5Yosys8DriveBitESaIS1_EE17_Vector_impl_dataC2Ev(ptr noundef nonnull align 8 dereferenceable(24) %0) unnamed_addr #7 comdat align 2 {
  %2 = alloca ptr, align 8
  store ptr %0, ptr %2, align 8, !tbaa !647
  %3 = load ptr, ptr %2, align 8
  %4 = getelementptr inbounds nuw %"struct.std::_Vector_base<Yosys::DriveBit, std::allocator<Yosys::DriveBit>>::_Vector_impl_data", ptr %3, i32 0, i32 0
  store ptr null, ptr %4, align 8, !tbaa !156
  %5 = getelementptr inbounds nuw %"struct.std::_Vector_base<Yosys::DriveBit, std::allocator<Yosys::DriveBit>>::_Vector_impl_data", ptr %3, i32 0, i32 1
  store ptr null, ptr %5, align 8, !tbaa !146
  %6 = getelementptr inbounds nuw %"struct.std::_Vector_base<Yosys::DriveBit, std::allocator<Yosys::DriveBit>>::_Vector_impl_data", ptr %3, i32 0, i32 2
  store ptr null, ptr %6, align 8, !tbaa !147
  ret void
}

; Function Attrs: mustprogress nounwind uwtable
define linkonce_odr void @_ZNSaIN5Yosys8DriveBitEEC2Ev(ptr noundef nonnull align 1 dereferenceable(1) %0) unnamed_addr #7 comdat align 2 {
  %2 = alloca ptr, align 8
  store ptr %0, ptr %2, align 8, !tbaa !645
  %3 = load ptr, ptr %2, align 8
  call void @_ZNSt15__new_allocatorIN5Yosys8DriveBitEEC2Ev(ptr noundef nonnull align 1 dereferenceable(1) %3) #3
  ret void
}

; Function Attrs: mustprogress nounwind uwtable
define linkonce_odr void @_ZNSt12_Vector_baseIN5Yosys10DriveChunkESaIS1_EE17_Vector_impl_dataC2Ev(ptr noundef nonnull align 8 dereferenceable(24) %0) unnamed_addr #7 comdat align 2 {
  %2 = alloca ptr, align 8
  store ptr %0, ptr %2, align 8, !tbaa !726
  %3 = load ptr, ptr %2, align 8
  %4 = getelementptr inbounds nuw %"struct.std::_Vector_base<Yosys::DriveChunk, std::allocator<Yosys::DriveChunk>>::_Vector_impl_data", ptr %3, i32 0, i32 0
  store ptr null, ptr %4, align 8, !tbaa !163
  %5 = getelementptr inbounds nuw %"struct.std::_Vector_base<Yosys::DriveChunk, std::allocator<Yosys::DriveChunk>>::_Vector_impl_data", ptr %3, i32 0, i32 1
  store ptr null, ptr %5, align 8, !tbaa !150
  %6 = getelementptr inbounds nuw %"struct.std::_Vector_base<Yosys::DriveChunk, std::allocator<Yosys::DriveChunk>>::_Vector_impl_data", ptr %3, i32 0, i32 2
  store ptr null, ptr %6, align 8, !tbaa !151
  ret void
}

; Function Attrs: mustprogress nounwind uwtable
define linkonce_odr void @_ZNSaIN5Yosys10DriveChunkEEC2Ev(ptr noundef nonnull align 1 dereferenceable(1) %0) unnamed_addr #7 comdat align 2 {
  %2 = alloca ptr, align 8
  store ptr %0, ptr %2, align 8, !tbaa !724
  %3 = load ptr, ptr %2, align 8
  call void @_ZNSt15__new_allocatorIN5Yosys10DriveChunkEEC2Ev(ptr noundef nonnull align 1 dereferenceable(1) %3) #3
  ret void
}

; Function Attrs: mustprogress nounwind uwtable
define linkonce_odr void @_ZNSt12_Vector_baseIN5Yosys8DriveBitESaIS1_EE12_Vector_implC2Ev(ptr noundef nonnull align 8 dereferenceable(24) %0) unnamed_addr #7 comdat align 2 {
  %2 = alloca ptr, align 8
  store ptr %0, ptr %2, align 8, !tbaa !643
  %3 = load ptr, ptr %2, align 8
  call void @_ZNSaIN5Yosys8DriveBitEEC2Ev(ptr noundef nonnull align 1 dereferenceable(1) %3) #3
  call void @_ZNSt12_Vector_baseIN5Yosys8DriveBitESaIS1_EE17_Vector_impl_dataC2Ev(ptr noundef nonnull align 8 dereferenceable(24) %3) #3
  ret void
}

; Function Attrs: mustprogress nounwind uwtable
define linkonce_odr void @_ZNSt12_Vector_baseIN5Yosys10DriveChunkESaIS1_EE12_Vector_implC2Ev(ptr noundef nonnull align 8 dereferenceable(24) %0) unnamed_addr #7 comdat align 2 {
  %2 = alloca ptr, align 8
  store ptr %0, ptr %2, align 8, !tbaa !722
  %3 = load ptr, ptr %2, align 8
  call void @_ZNSaIN5Yosys10DriveChunkEEC2Ev(ptr noundef nonnull align 1 dereferenceable(1) %3) #3
  call void @_ZNSt12_Vector_baseIN5Yosys10DriveChunkESaIS1_EE17_Vector_impl_dataC2Ev(ptr noundef nonnull align 8 dereferenceable(24) %3) #3
  ret void
}

; Function Attrs: mustprogress nounwind uwtable
define linkonce_odr void @_ZNSt12_Vector_baseIN5Yosys8DriveBitESaIS1_EEC2Ev(ptr noundef nonnull align 8 dereferenceable(24) %0) unnamed_addr #7 comdat align 2 {
  %2 = alloca ptr, align 8
  store ptr %0, ptr %2, align 8, !tbaa !641
  %3 = load ptr, ptr %2, align 8
  %4 = getelementptr inbounds nuw %"struct.std::_Vector_base.31", ptr %3, i32 0, i32 0
  call void @_ZNSt12_Vector_baseIN5Yosys8DriveBitESaIS1_EE12_Vector_implC2Ev(ptr noundef nonnull align 8 dereferenceable(24) %4) #3
  ret void
}

; Function Attrs: mustprogress nounwind uwtable
define linkonce_odr void @_ZNSt12_Vector_baseIN5Yosys10DriveChunkESaIS1_EEC2Ev(ptr noundef nonnull align 8 dereferenceable(24) %0) unnamed_addr #7 comdat align 2 {
  %2 = alloca ptr, align 8
  store ptr %0, ptr %2, align 8, !tbaa !720
  %3 = load ptr, ptr %2, align 8
  %4 = getelementptr inbounds nuw %"struct.std::_Vector_base.26", ptr %3, i32 0, i32 0
  call void @_ZNSt12_Vector_baseIN5Yosys10DriveChunkESaIS1_EE12_Vector_implC2Ev(ptr noundef nonnull align 8 dereferenceable(24) %4) #3
  ret void
}

; Function Attrs: mustprogress nounwind uwtable
define linkonce_odr noundef nonnull align 8 dereferenceable(64) ptr @_ZNSt6vectorIN5Yosys8DriveBitESaIS1_EEixEm(ptr noundef nonnull align 8 dereferenceable(24) %0, i64 noundef %1) #7 comdat align 2 {
  %3 = alloca ptr, align 8
  %4 = alloca i64, align 8
  store ptr %0, ptr %3, align 8, !tbaa !144
  store i64 %1, ptr %4, align 8, !tbaa !121
  %5 = load ptr, ptr %3, align 8
  %6 = getelementptr inbounds nuw %"struct.std::_Vector_base.31", ptr %5, i32 0, i32 0
  %7 = getelementptr inbounds nuw %"struct.std::_Vector_base<Yosys::DriveBit, std::allocator<Yosys::DriveBit>>::_Vector_impl_data", ptr %6, i32 0, i32 0
  %8 = load ptr, ptr %7, align 8, !tbaa !156
  %9 = load i64, ptr %4, align 8, !tbaa !121
  %10 = getelementptr inbounds nuw %"struct.Yosys::DriveBit", ptr %8, i64 %9
  ret ptr %10
}

; Function Attrs: mustprogress nounwind uwtable
define linkonce_odr void @_ZNSt6vectorIN5Yosys8DriveBitESaIS1_EEC2Ev(ptr noundef nonnull align 8 dereferenceable(24) %0) unnamed_addr #7 comdat align 2 {
  %2 = alloca ptr, align 8
  store ptr %0, ptr %2, align 8, !tbaa !144
  %3 = load ptr, ptr %2, align 8
  call void @_ZNSt12_Vector_baseIN5Yosys8DriveBitESaIS1_EEC2Ev(ptr noundef nonnull align 8 dereferenceable(24) %3) #3
  ret void
}

; Function Attrs: mustprogress nounwind uwtable
define linkonce_odr void @_ZNSt6vectorIN5Yosys10DriveChunkESaIS1_EEC2Ev(ptr noundef nonnull align 8 dereferenceable(24) %0) unnamed_addr #7 comdat align 2 {
  %2 = alloca ptr, align 8
  store ptr %0, ptr %2, align 8, !tbaa !148
  %3 = load ptr, ptr %2, align 8
  call void @_ZNSt12_Vector_baseIN5Yosys10DriveChunkESaIS1_EEC2Ev(ptr noundef nonnull align 8 dereferenceable(24) %3) #3
  ret void
}

; Function Attrs: mustprogress nounwind uwtable
define linkonce_odr void @_ZN5Yosys8DriveBitD2Ev(ptr noundef nonnull align 8 dereferenceable(64) %0) unnamed_addr #7 comdat align 2 {
  %2 = alloca ptr, align 8
  store ptr %0, ptr %2, align 8, !tbaa !6
  %3 = load ptr, ptr %2, align 8
  call void @_ZN5Yosys8DriveBit8set_noneEv(ptr noundef nonnull align 8 dereferenceable(64) %3)
  ret void
}

; Function Attrs: mustprogress uwtable
define linkonce_odr noundef nonnull align 8 dereferenceable(64) ptr @_ZN5Yosys9DriveSpecixEi(ptr noundef nonnull align 8 dereferenceable(60) %0, i32 noundef %1) #4 comdat align 2 {
  %3 = alloca ptr, align 8
  %4 = alloca i32, align 4
  store ptr %0, ptr %3, align 8, !tbaa !131
  store i32 %1, ptr %4, align 4, !tbaa !23
  %5 = load ptr, ptr %3, align 8
  br label %6

6:                                                ; preds = %2
  br label %7

7:                                                ; preds = %6
  call void @_ZNK5Yosys9DriveSpec6unpackEv(ptr noundef nonnull align 8 dereferenceable(60) %5)
  %8 = getelementptr inbounds nuw %"struct.Yosys::DriveSpec", ptr %5, i32 0, i32 3
  %9 = load i32, ptr %4, align 4, !tbaa !23
  %10 = sext i32 %9 to i64
  %11 = call noundef nonnull align 8 dereferenceable(64) ptr @_ZNSt6vectorIN5Yosys8DriveBitESaIS1_EEixEm(ptr noundef nonnull align 8 dereferenceable(24) %8, i64 noundef %10) #3
  ret ptr %11
}

; Function Attrs: mustprogress nounwind uwtable
define linkonce_odr noundef i32 @_ZNK5Yosys9DriveSpec4sizeEv(ptr noundef nonnull align 8 dereferenceable(60) %0) #7 comdat align 2 {
  %2 = alloca ptr, align 8
  store ptr %0, ptr %2, align 8, !tbaa !131
  %3 = load ptr, ptr %2, align 8
  %4 = getelementptr inbounds nuw %"struct.Yosys::DriveSpec", ptr %3, i32 0, i32 0
  %5 = load i32, ptr %4, align 8, !tbaa !143
  ret i32 %5
}

; Function Attrs: mustprogress nounwind uwtable
define linkonce_odr void @_ZN5Yosys9DriveSpecC2Ev(ptr noundef nonnull align 8 dereferenceable(60) %0) unnamed_addr #7 comdat align 2 {
  %2 = alloca ptr, align 8
  store ptr %0, ptr %2, align 8, !tbaa !131
  %3 = load ptr, ptr %2, align 8
  %4 = getelementptr inbounds nuw %"struct.Yosys::DriveSpec", ptr %3, i32 0, i32 0
  store i32 0, ptr %4, align 8, !tbaa !143
  %5 = getelementptr inbounds nuw %"struct.Yosys::DriveSpec", ptr %3, i32 0, i32 2
  call void @_ZNSt6vectorIN5Yosys10DriveChunkESaIS1_EEC2Ev(ptr noundef nonnull align 8 dereferenceable(24) %5) #3
  %6 = getelementptr inbounds nuw %"struct.Yosys::DriveSpec", ptr %3, i32 0, i32 3
  call void @_ZNSt6vectorIN5Yosys8DriveBitESaIS1_EEC2Ev(ptr noundef nonnull align 8 dereferenceable(24) %6) #3
  %7 = getelementptr inbounds nuw %"struct.Yosys::DriveSpec", ptr %3, i32 0, i32 4
  store i32 0, ptr %7, align 8, !tbaa !133
  ret void
}

; Function Attrs: mustprogress uwtable
define void @_ZN5Yosys9DriverMapclENS_9DriveSpecE(ptr dead_on_unwind noalias writable sret(%"struct.Yosys::DriveSpec") align 8 %0, ptr noundef nonnull align 8 dereferenceable(1088) %1, ptr noundef %2) #4 align 2 personality ptr @__gxx_personality_v0 {
  %4 = alloca ptr, align 8
  %5 = alloca ptr, align 8
  %6 = alloca ptr, align 8
  %7 = alloca i1, align 1
  %8 = alloca i32, align 4
  %9 = alloca i32, align 4
  %10 = alloca ptr, align 8
  %11 = alloca i32, align 4
  %12 = alloca %"struct.Yosys::DriveBit", align 8
  store ptr %0, ptr %4, align 8
  store ptr %1, ptr %5, align 8, !tbaa !197
  store ptr %2, ptr %6, align 8, !tbaa !131
  %13 = load ptr, ptr %5, align 8
  store i1 false, ptr %7, align 1
  call void @_ZN5Yosys9DriveSpecC2Ev(ptr noundef nonnull align 8 dereferenceable(60) %0)
  call void @llvm.lifetime.start.p0(i64 4, ptr %8) #3
  store i32 0, ptr %8, align 4, !tbaa !23
  call void @llvm.lifetime.start.p0(i64 4, ptr %9) #3
  %14 = invoke noundef i32 @_ZNK5Yosys9DriveSpec4sizeEv(ptr noundef nonnull align 8 dereferenceable(60) %2)
          to label %15 unwind label %21

15:                                               ; preds = %3
  store i32 %14, ptr %9, align 4, !tbaa !23
  br label %16

16:                                               ; preds = %31, %15
  %17 = load i32, ptr %8, align 4, !tbaa !23
  %18 = load i32, ptr %9, align 4, !tbaa !23
  %19 = icmp ne i32 %17, %18
  br i1 %19, label %25, label %20

20:                                               ; preds = %16
  call void @llvm.lifetime.end.p0(i64 4, ptr %9) #3
  call void @llvm.lifetime.end.p0(i64 4, ptr %8) #3
  br label %44

21:                                               ; preds = %3
  %22 = landingpad { ptr, i32 }
          cleanup
  %23 = extractvalue { ptr, i32 } %22, 0
  store ptr %23, ptr %10, align 8
  %24 = extractvalue { ptr, i32 } %22, 1
  store i32 %24, ptr %11, align 4
  br label %43

25:                                               ; preds = %16
  call void @llvm.lifetime.start.p0(i64 64, ptr %12) #3
  %26 = load i32, ptr %8, align 4, !tbaa !23
  %27 = invoke noundef nonnull align 8 dereferenceable(64) ptr @_ZN5Yosys9DriveSpecixEi(ptr noundef nonnull align 8 dereferenceable(60) %2, i32 noundef %26)
          to label %28 unwind label %34

28:                                               ; preds = %25
  invoke void @_ZN5Yosys9DriverMapclERKNS_8DriveBitE(ptr dead_on_unwind writable sret(%"struct.Yosys::DriveBit") align 8 %12, ptr noundef nonnull align 8 dereferenceable(1088) %13, ptr noundef nonnull align 8 dereferenceable(64) %27)
          to label %29 unwind label %34

29:                                               ; preds = %28
  invoke void @_ZN5Yosys9DriveSpec6appendERKNS_8DriveBitE(ptr noundef nonnull align 8 dereferenceable(60) %0, ptr noundef nonnull align 8 dereferenceable(64) %12)
          to label %30 unwind label %38

30:                                               ; preds = %29
  call void @_ZN5Yosys8DriveBitD2Ev(ptr noundef nonnull align 8 dereferenceable(64) %12) #3
  call void @llvm.lifetime.end.p0(i64 64, ptr %12) #3
  br label %31

31:                                               ; preds = %30
  %32 = load i32, ptr %8, align 4, !tbaa !23
  %33 = add nsw i32 %32, 1
  store i32 %33, ptr %8, align 4, !tbaa !23
  br label %16, !llvm.loop !416

34:                                               ; preds = %28, %25
  %35 = landingpad { ptr, i32 }
          cleanup
  %36 = extractvalue { ptr, i32 } %35, 0
  store ptr %36, ptr %10, align 8
  %37 = extractvalue { ptr, i32 } %35, 1
  store i32 %37, ptr %11, align 4
  br label %42

38:                                               ; preds = %29
  %39 = landingpad { ptr, i32 }
          cleanup
  %40 = extractvalue { ptr, i32 } %39, 0
  store ptr %40, ptr %10, align 8
  %41 = extractvalue { ptr, i32 } %39, 1
  store i32 %41, ptr %11, align 4
  call void @_ZN5Yosys8DriveBitD2Ev(ptr noundef nonnull align 8 dereferenceable(64) %12) #3
  br label %42

42:                                               ; preds = %38, %34
  call void @llvm.lifetime.end.p0(i64 64, ptr %12) #3
  br label %43

43:                                               ; preds = %42, %21
  call void @llvm.lifetime.end.p0(i64 4, ptr %9) #3
  call void @llvm.lifetime.end.p0(i64 4, ptr %8) #3
  call void @_ZN5Yosys9DriveSpecD2Ev(ptr noundef nonnull align 8 dereferenceable(60) %0) #3
  br label %48

44:                                               ; preds = %20
  store i1 true, ptr %7, align 1
  %45 = load i1, ptr %7, align 1
  br i1 %45, label %47, label %46

46:                                               ; preds = %44
  call void @_ZN5Yosys9DriveSpecD2Ev(ptr noundef nonnull align 8 dereferenceable(60) %0) #3
  br label %47

47:                                               ; preds = %46, %44
  ret void

48:                                               ; preds = %43
  %49 = load ptr, ptr %10, align 8
  %50 = load i32, ptr %11, align 4
  %51 = insertvalue { ptr, i32 } poison, ptr %49, 0
  %52 = insertvalue { ptr, i32 } %51, i32 %50, 1
  resume { ptr, i32 } %52
}