; Function Attrs: mustprogress uwtable
define void @_ZN5Yosys9DriverMapclENS_9DriveSpecE(ptr dead_on_unwind noalias writable sret(%"struct.Yosys::DriveSpec") align 8 initializes((0, 4), (8, 60)) %0, ptr noundef nonnull align 8 dereferenceable(1088) %1, ptr noundef %2) local_unnamed_addr #5 align 2 personality ptr @__gxx_personality_v0 {
  %4 = alloca %"struct.Yosys::DriveBit", align 8
  store i32 0, ptr %0, align 8, !tbaa !139
  %5 = getelementptr inbounds nuw i8, ptr %0, i64 8
  tail call void @llvm.memset.p0.i64(ptr noundef nonnull align 8 dereferenceable(52) %5, i8 0, i64 52, i1 false)
  %6 = load i32, ptr %2, align 8, !tbaa !139
  %.not10 = icmp eq i32 %6, 0
  br i1 %.not10, label %._crit_edge, label %.lr.ph

.lr.ph:                                           ; preds = %3
  %7 = getelementptr inbounds nuw i8, ptr %2, i64 32
  %8 = zext i32 %6 to i64
  br label %9

9:                                                ; preds = %.lr.ph, %14
  %indvars.iv = phi i64 [ 0, %.lr.ph ], [ %indvars.iv.next, %14 ]
  call void @llvm.lifetime.start.p0(i64 64, ptr nonnull %4) #28
  invoke void @_ZNK5Yosys9DriveSpec6unpackEv(ptr noundef nonnull align 8 dereferenceable(60) %2)
          to label %10 unwind label %15

10:                                               ; preds = %9
  %11 = load ptr, ptr %7, align 8, !tbaa !140
  %12 = getelementptr inbounds nuw %"struct.Yosys::DriveBit", ptr %11, i64 %indvars.iv
  invoke void @_ZN5Yosys9DriverMapclERKNS_8DriveBitE(ptr dead_on_unwind nonnull writable sret(%"struct.Yosys::DriveBit") align 8 %4, ptr noundef nonnull align 8 dereferenceable(1088) %1, ptr noundef nonnull align 8 dereferenceable(64) %12)
          to label %13 unwind label %15

13:                                               ; preds = %10
  invoke void @_ZN5Yosys9DriveSpec6appendERKNS_8DriveBitE(ptr noundef nonnull align 8 dereferenceable(60) %0, ptr noundef nonnull align 8 dereferenceable(64) %4)
          to label %14 unwind label %17

14:                                               ; preds = %13
  call void @_ZN5Yosys8DriveBit8set_noneEv(ptr noundef nonnull align 8 dereferenceable(64) %4)
  call void @llvm.lifetime.end.p0(i64 64, ptr nonnull %4) #28
  %indvars.iv.next = add nuw nsw i64 %indvars.iv, 1
  %.not = icmp eq i64 %indvars.iv.next, %8
  br i1 %.not, label %._crit_edge, label %9, !llvm.loop !424

15:                                               ; preds = %9, %10
  %16 = landingpad { ptr, i32 }
          cleanup
  br label %19

17:                                               ; preds = %13
  %18 = landingpad { ptr, i32 }
          cleanup
  call void @_ZN5Yosys8DriveBit8set_noneEv(ptr noundef nonnull align 8 dereferenceable(64) %4)
  br label %19

19:                                               ; preds = %17, %15
  %.pn = phi { ptr, i32 } [ %18, %17 ], [ %16, %15 ]
  call void @llvm.lifetime.end.p0(i64 64, ptr nonnull %4) #28
  call void @_ZN5Yosys9DriveSpecD2Ev(ptr noundef nonnull align 8 dereferenceable(60) %0) #28
  resume { ptr, i32 } %.pn

._crit_edge:                                      ; preds = %14, %3
  ret void
}